target datalayout = "e-m:e-p270:32:32-p271:32:32-p272:64:64-i64:64-i128:128-f80:128-n8:16:32:64-S128"
target triple = "x86_64-pc-linux-gnu"

%struct.ProresDSPContext = type { i32, [64 x i8], ptr }

; Function Attrs: cold nounwind optsize uwtable
define void @ff_proresdsp_init(ptr noundef %0, i32 noundef %1) #0 {
  %3 = alloca ptr, align 8
  %4 = alloca i32, align 4
  store ptr %0, ptr %3, align 8, !tbaa !4
  store i32 %1, ptr %4, align 4, !tbaa !9
  %5 = load i32, ptr %4, align 4, !tbaa !9
  %6 = icmp eq i32 %5, 10
  br i1 %6, label %7, label %12

7:                                                ; preds = %2
  %8 = load ptr, ptr %3, align 8, !tbaa !4
  %9 = getelementptr inbounds nuw %struct.ProresDSPContext, ptr %8, i32 0, i32 2
  store ptr @prores_idct_put_10_c, ptr %9, align 8, !tbaa !11
  %10 = load ptr, ptr %3, align 8, !tbaa !4
  %11 = getelementptr inbounds nuw %struct.ProresDSPContext, ptr %10, i32 0, i32 0
  store i32 0, ptr %11, align 8, !tbaa !13
  br label %17

12:                                               ; preds = %2
  %13 = load ptr, ptr %3, align 8, !tbaa !4
  %14 = getelementptr inbounds nuw %struct.ProresDSPContext, ptr %13, i32 0, i32 2
  store ptr @prores_idct_put_12_c, ptr %14, align 8, !tbaa !11
  %15 = load ptr, ptr %3, align 8, !tbaa !4
  %16 = getelementptr inbounds nuw %struct.ProresDSPContext, ptr %15, i32 0, i32 0
  store i32 0, ptr %16, align 8, !tbaa !13
  br label %17

17:                                               ; preds = %12, %7
  %18 = load ptr, ptr %3, align 8, !tbaa !4
  %19 = getelementptr inbounds nuw %struct.ProresDSPContext, ptr %18, i32 0, i32 1
  %20 = getelementptr inbounds [64 x i8], ptr %19, i64 0, i64 0
  %21 = load ptr, ptr %3, align 8, !tbaa !4
  %22 = getelementptr inbounds nuw %struct.ProresDSPContext, ptr %21, i32 0, i32 0
  %23 = load i32, ptr %22, align 8, !tbaa !13
  call void @ff_init_scantable_permutation(ptr noundef %20, i32 noundef %23)
  ret void
}