; Function Attrs: cold nounwind optsize uwtable
define void @ff_proresdsp_init(ptr noundef initializes((0, 4), (72, 80)) %0, i32 noundef %1) local_unnamed_addr #0 {
  %3 = icmp eq i32 %1, 10
  %spec.select = select i1 %3, ptr @prores_idct_put_10_c, ptr @prores_idct_put_12_c
  %4 = getelementptr inbounds nuw i8, ptr %0, i64 72
  store ptr %spec.select, ptr %4, align 8, !tbaa !4
  store i32 0, ptr %0, align 8, !tbaa !10
  %5 = getelementptr inbounds nuw i8, ptr %0, i64 4
  tail call void @ff_init_scantable_permutation(ptr noundef nonnull %5, i32 noundef 0) #5
  ret void
}